#include <math.h>
#include <stdio.h>
#include <stdlib.h>
#include <string.h>
#include <iostream>
using namespace std;

/*
 * 1000012786_25.cpp
 *
 *  Created on: 2010-10-29
 *      Author: ??
 */
int main(){
	int n,b=0;//??????????n
	cin>>n;//????????
	const int i=n;//?????i???n????i
	int a[i];//????a[i]
	for(b=0;b<i;b++)
		cin>>a[b];//???????
	int d,h=0,c;//????????
	cin>>d;//????????
	for(b=i-1;b>=0;b--)
		if(a[b]==d){
			for(c=b;c<=i-1;c++) a[c]=a[c+1];
			h++;
		}//???????????????
         int f=i-h;
	for(b=0;b<f - 1;b++) {cout<<a[b]<<" ";}//????????
         cout << a[ f - 1 ];
	return 0;
}
